; Function Attrs: mustprogress nofree norecurse nosync nounwind ssp willreturn memory(argmem: readwrite) uwtable
define internal void @_ZN6open3d4core6kernelL26CPULogicalXorElementKernelIffEEvPKvS4_Pv(ptr noundef readonly captures(none) %0, ptr noundef readonly captures(none) %1, ptr noundef writeonly captures(none) initializes((0, 4)) %2) #15 {
  %4 = load float, ptr %0, align 4, !tbaa !685
  %5 = fcmp une float %4, 0.000000e+00
  %6 = load float, ptr %1, align 4, !tbaa !685
  %7 = fcmp une float %6, 0.000000e+00
  %8 = xor i1 %5, %7
  %9 = uitofp i1 %8 to float
  store float %9, ptr %2, align 4, !tbaa !685
  ret void
}